; Function Attrs: nounwind uwtable
define void @Pla_ManConvertToBits(ptr noundef captures(none) %0) local_unnamed_addr #0 {
  %2 = getelementptr inbounds nuw i8, ptr %0, i64 40
  %3 = getelementptr i8, ptr %0, i64 108
  %.val25 = load i32, ptr %3, align 4, !tbaa !53
  %4 = load i32, ptr %2, align 8, !tbaa !23
  %.not.i.i = icmp slt i32 %4, %.val25
  br i1 %.not.i.i, label %5, label %Vec_IntGrow.exit.i

5:                                                ; preds = %1
  %6 = getelementptr inbounds nuw i8, ptr %0, i64 48
  %7 = load ptr, ptr %6, align 8, !tbaa !24
  %.not9.i.i = icmp eq ptr %7, null
  %8 = sext i32 %.val25 to i64
  %9 = shl nsw i64 %8, 2
  br i1 %.not9.i.i, label %12, label %10

10:                                               ; preds = %5
  %11 = tail call ptr @realloc(ptr noundef nonnull %7, i64 noundef %9) #20
  br label %14

12:                                               ; preds = %5
  %13 = tail call noalias ptr @malloc(i64 noundef %9) #19
  br label %14

14:                                               ; preds = %12, %10
  %15 = phi ptr [ %11, %10 ], [ %13, %12 ]
  store ptr %15, ptr %6, align 8, !tbaa !24
  store i32 %.val25, ptr %2, align 8, !tbaa !23
  br label %Vec_IntGrow.exit.i

Vec_IntGrow.exit.i:                               ; preds = %14, %1
  %16 = icmp sgt i32 %.val25, 0
  br i1 %16, label %.lr.ph.i, label %Vec_IntFillNatural.exit

.lr.ph.i:                                         ; preds = %Vec_IntGrow.exit.i
  %17 = getelementptr inbounds nuw i8, ptr %0, i64 48
  %18 = load ptr, ptr %17, align 8, !tbaa !24
  %wide.trip.count.i = zext nneg i32 %.val25 to i64
  br label %19

19:                                               ; preds = %19, %.lr.ph.i
  %indvars.iv.i = phi i64 [ 0, %.lr.ph.i ], [ %indvars.iv.next.i, %19 ]
  %20 = getelementptr inbounds nuw i32, ptr %18, i64 %indvars.iv.i
  %21 = trunc nuw nsw i64 %indvars.iv.i to i32
  store i32 %21, ptr %20, align 4, !tbaa !17
  %indvars.iv.next.i = add nuw nsw i64 %indvars.iv.i, 1
  %exitcond.not.i = icmp eq i64 %indvars.iv.next.i, %wide.trip.count.i
  br i1 %exitcond.not.i, label %Vec_IntFillNatural.exit, label %19, !llvm.loop !44

Vec_IntFillNatural.exit:                          ; preds = %19, %Vec_IntGrow.exit.i
  %22 = getelementptr inbounds nuw i8, ptr %0, i64 44
  store i32 %.val25, ptr %22, align 4, !tbaa !21
  %23 = getelementptr inbounds nuw i8, ptr %0, i64 72
  %24 = getelementptr inbounds nuw i8, ptr %0, i64 28
  %25 = load i32, ptr %24, align 4, !tbaa !34
  %26 = mul nsw i32 %25, %.val25
  %27 = load i32, ptr %23, align 8, !tbaa !45
  %.not.i.i28 = icmp slt i32 %27, %26
  br i1 %.not.i.i28, label %28, label %Vec_WrdGrow.exit.i

28:                                               ; preds = %Vec_IntFillNatural.exit
  %29 = getelementptr inbounds nuw i8, ptr %0, i64 80
  %30 = load ptr, ptr %29, align 8, !tbaa !26
  %.not9.i.i30 = icmp eq ptr %30, null
  %31 = sext i32 %26 to i64
  %32 = shl nsw i64 %31, 3
  br i1 %.not9.i.i30, label %35, label %33

33:                                               ; preds = %28
  %34 = tail call ptr @realloc(ptr noundef nonnull %30, i64 noundef %32) #20
  br label %37

35:                                               ; preds = %28
  %36 = tail call noalias ptr @malloc(i64 noundef %32) #19
  br label %37

37:                                               ; preds = %35, %33
  %38 = phi ptr [ %34, %33 ], [ %36, %35 ]
  store ptr %38, ptr %29, align 8, !tbaa !26
  store i32 %26, ptr %23, align 8, !tbaa !45
  br label %Vec_WrdGrow.exit.i

Vec_WrdGrow.exit.i:                               ; preds = %37, %Vec_IntFillNatural.exit
  %39 = icmp sgt i32 %26, 0
  br i1 %39, label %.lr.ph.i29, label %Vec_WrdFill.exit

.lr.ph.i29:                                       ; preds = %Vec_WrdGrow.exit.i
  %40 = getelementptr inbounds nuw i8, ptr %0, i64 80
  %41 = load ptr, ptr %40, align 8, !tbaa !26
  %42 = zext nneg i32 %26 to i64
  %43 = shl nuw nsw i64 %42, 3
  tail call void @llvm.memset.p0.i64(ptr align 8 %41, i8 0, i64 %43, i1 false), !tbaa !35
  br label %Vec_WrdFill.exit

Vec_WrdFill.exit:                                 ; preds = %Vec_WrdGrow.exit.i, %.lr.ph.i29
  %44 = getelementptr inbounds nuw i8, ptr %0, i64 76
  store i32 %26, ptr %44, align 4, !tbaa !46
  %.val26 = load i32, ptr %3, align 4, !tbaa !53
  %45 = icmp sgt i32 %.val26, 0
  br i1 %45, label %.lr.ph33, label %.critedge

.lr.ph33:                                         ; preds = %Vec_WrdFill.exit
  %46 = getelementptr i8, ptr %0, i64 112
  %.val27 = load ptr, ptr %46, align 8, !tbaa !54
  %47 = getelementptr i8, ptr %0, i64 80
  %wide.trip.count38 = zext nneg i32 %.val26 to i64
  br label %48

48:                                               ; preds = %.lr.ph33, %.critedge2
  %indvars.iv35 = phi i64 [ 0, %.lr.ph33 ], [ %indvars.iv.next36, %.critedge2 ]
  %49 = getelementptr inbounds nuw %struct.Vec_Int_t_, ptr %.val27, i64 %indvars.iv35
  %50 = getelementptr i8, ptr %49, i64 4
  %.val = load i32, ptr %50, align 4, !tbaa !21
  %51 = icmp sgt i32 %.val, 0
  br i1 %51, label %.lr.ph, label %.critedge2

.lr.ph:                                           ; preds = %48
  %52 = getelementptr i8, ptr %49, i64 8
  %.val24 = load ptr, ptr %52, align 8, !tbaa !24
  %.val22 = load i32, ptr %24, align 4, !tbaa !34
  %.val23 = load ptr, ptr %47, align 8, !tbaa !26
  %53 = trunc nuw nsw i64 %indvars.iv35 to i32
  %54 = mul nsw i32 %.val22, %53
  %55 = sext i32 %54 to i64
  %56 = getelementptr inbounds i64, ptr %.val23, i64 %55
  %wide.trip.count = zext nneg i32 %.val to i64
  br label %57

57:                                               ; preds = %.lr.ph, %57
  %indvars.iv = phi i64 [ 0, %.lr.ph ], [ %indvars.iv.next, %57 ]
  %58 = getelementptr inbounds nuw i32, ptr %.val24, i64 %indvars.iv
  %59 = load i32, ptr %58, align 4, !tbaa !17
  %60 = and i32 %59, 1
  %61 = sub nuw nsw i32 2, %60
  %62 = zext nneg i32 %61 to i64
  %63 = and i32 %59, 62
  %64 = zext nneg i32 %63 to i64
  %65 = shl nuw i64 %62, %64
  %66 = ashr i32 %59, 6
  %67 = sext i32 %66 to i64
  %68 = getelementptr inbounds i64, ptr %56, i64 %67
  %69 = load i64, ptr %68, align 8, !tbaa !35
  %70 = or i64 %65, %69
  store i64 %70, ptr %68, align 8, !tbaa !35
  %indvars.iv.next = add nuw nsw i64 %indvars.iv, 1
  %exitcond.not = icmp eq i64 %indvars.iv.next, %wide.trip.count
  br i1 %exitcond.not, label %.critedge2, label %57, !llvm.loop !60

.critedge2:                                       ; preds = %57, %48
  %indvars.iv.next36 = add nuw nsw i64 %indvars.iv35, 1
  %exitcond39.not = icmp eq i64 %indvars.iv.next36, %wide.trip.count38
  br i1 %exitcond39.not, label %.critedge, label %48, !llvm.loop !61

.critedge:                                        ; preds = %.critedge2, %Vec_WrdFill.exit
  ret void
}